Certificate:
    Data:
        Version: 3 (0x2)
        Serial Number: 1 (0x1)
        Signature Algorithm: sha256WithRSAEncryption
        Issuer: C=AU, ST=Some-State, O=Internet Widgits Pty Ltd, CN=Root
        Validity
            Not Before: Jul 18 08:42:39 2022 GMT
            Not After : Jul 18 08:42:39 2027 GMT
        Subject: C=AU, ST=Some-State, O=Internet Widgits Pty Ltd, CN=Intermedia
        Subject Public Key Info:
            Public Key Algorithm: rsaEncryption
                RSA Public-Key: (2048 bit)
                Modulus:
                    00:b4:07:b0:e7:3c:37:9e:52:fb:1e:c5:ab:e7:6f:
                    b5:d2:d3:fd:13:57:d9:c7:99:31:4f:94:67:3e:52:
                    8d:e5:b8:09:ac:4e:59:dd:e6:05:dd:f9:79:d8:a7:
                    6c:25:56:d3:08:7f:4c:07:18:90:76:92:3c:f2:2b:
                    5c:9e:ba:06:94:46:fd:b2:e8:f3:41:36:ba:a2:17:
                    bc:a2:c6:55:c9:96:23:38:ad:d3:bd:07:a4:ef:1a:
                    a9:19:f8:46:bb:c1:56:eb:35:8c:ed:7b:01:ba:c7:
                    d4:da:8a:6e:a3:80:68:ab:85:64:fc:b3:53:60:40:
                    86:12:12:51:d7:3d:90:5d:c1:f5:fb:05:d0:9d:8e:
                    f3:f5:8f:cb:97:05:d5:9c:86:0d:a7:61:b8:ac:cc:
                    bc:6b:9e:c7:bd:9f:2a:30:3a:fc:b7:f5:9d:a7:c1:
                    ba:7f:9c:ac:b9:b5:d7:e3:03:87:43:9f:c1:39:b9:
                    cc:c6:1b:ff:9d:91:71:9d:9d:86:6d:6d:05:92:d1:
                    90:74:d6:ea:0b:78:e2:c8:8b:e1:3b:06:fe:82:1d:
                    a3:9a:cd:b2:1b:36:a7:c3:e4:a2:d9:3f:af:bf:43:
                    bc:cd:2f:16:73:48:e4:7a:80:3f:4c:94:b7:a0:46:
                    73:92:cc:1b:23:c6:0c:1d:34:c6:b5:3d:21:10:93:
                    f2:91
                Exponent: 65537 (0x10001)
        X509v3 extensions:
            X509v3 Subject Key Identifier: 
                12:75:A0:29:75:22:F6:E2:DD:12:3F:1C:7E:C0:A5:0F:3A:C4:6D:F1
            X509v3 Authority Key Identifier: 
                keyid:4A:8B:14:78:82:D8:72:D1:97:37:A7:9E:9A:4B:58:C6:93:E6:18:38

            X509v3 Basic Constraints: critical
                CA:TRUE
    Signature Algorithm: sha256WithRSAEncryption
         7b:49:16:f7:21:79:58:53:4c:3a:2b:c0:0c:d2:ba:14:ce:1d:
         d2:87:3f:2b:e0:6b:3c:46:93:80:21:18:77:ab:6c:b1:83:45:
         55:9d:04:f2:7f:af:88:19:88:4c:98:9b:a0:6b:9e:4f:59:5f:
         02:e2:d3:43:99:51:40:05:08:d8:39:f6:ba:cc:82:ec:1f:b5:
         5c:3a:b9:b1:b9:92:77:16:80:ec:5c:65:04:8c:c4:f7:6c:48:
         0d:bb:5b:38:05:85:dd:ad:0f:47:04:11:19:73:a7:61:a6:00:
         7f:af:bb:60:ae:0c:ed:12:15:c8:4f:58:d0:33:6d:21:9f:16:
         0e:3e:99:92:17:2d:79:d9:19:58:7d:92:fb:ec:3d:9a:fe:14:
         8f:40:52:56:90:9e:6f:59:0a:34:b7:75:33:da:01:f0:df:8a:
         cd:c9:d9:31:43:90:ae:76:e3:0f:91:cc:1f:ee:91:a9:04:b7:
         77:a0:1a:49:ce:a9:ef:c2:0b:8d:ea:5e:e8:21:56:7f:e1:dc:
         f2:aa:9f:8c:e1:5b:4b:be:9e:c8:c9:9c:2c:19:6b:30:6c:c0:
         97:b5:69:f3:83:d3:71:df:3e:6c:1d:fe:9d:d7:92:d4:d1:28:
         85:3a:dc:9d:1d:8c:b1:59:fa:23:64:9d:67:fa:70:7d:7f:dc:
         db:26:cc:cd
-----BEGIN CERTIFICATE-----
MIIDfDCCAmSgAwIBAgIBATANBgkqhkiG9w0BAQsFADBUMQswCQYDVQQGEwJBVTET
MBEGA1UECAwKU29tZS1TdGF0ZTEhMB8GA1UECgwYSW50ZXJuZXQgV2lkZ2l0cyBQ
dHkgTHRkMQ0wCwYDVQQDDARSb290MB4XDTIyMDcxODA4NDIzOVoXDTI3MDcxODA4
NDIzOVowWjELMAkGA1UEBhMCQVUxEzARBgNVBAgMClNvbWUtU3RhdGUxITAfBgNV
BAoMGEludGVybmV0IFdpZGdpdHMgUHR5IEx0ZDETMBEGA1UEAwwKSW50ZXJtZWRp
YTCCASIwDQYJKoZIhvcNAQEBBQADggEPADCCAQoCggEBALQHsOc8N55S+x7Fq+dv
tdLT/RNX2ceZMU+UZz5SjeW4CaxOWd3mBd35edinbCVW0wh/TAcYkHaSPPIrXJ66
BpRG/bLo80E2uqIXvKLGVcmWIzit070HpO8aqRn4RrvBVus1jO17AbrH1NqKbqOA
aKuFZPyzU2BAhhISUdc9kF3B9fsF0J2O8/WPy5cF1ZyGDadhuKzMvGuex72fKjA6
/Lf1nafBun+crLm11+MDh0OfwTm5zMYb/52RcZ2dhm1tBZLRkHTW6gt44siL4TsG
/oIdo5rNshs2p8Pkotk/r79DvM0vFnNI5HqAP0yUt6BGc5LMGyPGDB00xrU9IRCT
8pECAwEAAaNTMFEwHQYDVR0OBBYEFBJ1oCl1Ivbi3RI/HH7ApQ86xG3xMB8GA1Ud
IwQYMBaAFEqLFHiC2HLRlzennppLWMaT5hg4MA8GA1UdEwEB/wQFMAMBAf8wDQYJ
KoZIhvcNAQELBQADggEBAHtJFvcheVhTTDorwAzSuhTOHdKHPyvgazxGk4AhGHer
bLGDRVWdBPJ/r4gZiEyYm6Brnk9ZXwLi00OZUUAFCNg59rrMguwftVw6ubG5kncW
gOxcZQSMxPdsSA27WzgFhd2tD0cEERlzp2GmAH+vu2CuDO0SFchPWNAzbSGfFg4+
mZIXLXnZGVh9kvvsPZr+FI9AUlaQnm9ZCjS3dTPaAfDfis3J2TFDkK524w+RzB/u
kakEt3egGknOqe/CC43qXughVn/h3PKqn4zhW0u+nsjJnCwZazBswJe1afOD03Hf
Pmwd/p3XktTRKIU63J0djLFZ+iNknWf6cH1/3NsmzM0=
-----END CERTIFICATE-----
